target datalayout = "e-m:e-p270:32:32-p271:32:32-p272:64:64-i64:64-i128:128-f80:128-n8:16:32:64-S128"
target triple = "x86_64-pc-linux-gnu"

@hf_scsi_naa_type = internal global i32 0, align 4
@hf_scsi_naa_locally_assigned = internal global i32 0, align 4
@hf_scsi_naa_ieee_company_id = internal global i32 0, align 4
@hf_scsi_naa_vendor_specific = internal global i32 0, align 4
@hf_scsi_naa_vendor_specific_extension = internal global i32 0, align 4
@ett_scsi_naa = internal global i32 0, align 4
@.str.1620 = private unnamed_addr constant [17 x i8] c"Unknown (0x%08x)\00", align 1
@.str.1623 = private unnamed_addr constant [19 x i8] c"NAA Designator: %s\00", align 1

; Function Attrs: nounwind uwtable
define internal void @dissect_naa_designator(ptr noundef %0, ptr noundef %1, i32 noundef %2, i32 noundef %3) #0 {
  %5 = alloca ptr, align 8
  %6 = alloca ptr, align 8
  %7 = alloca i32, align 4
  %8 = alloca i32, align 4
  %9 = alloca ptr, align 8
  %10 = alloca i8, align 1
  %11 = alloca i64, align 8
  store ptr %0, ptr %5, align 8
  store ptr %1, ptr %6, align 8
  store i32 %2, ptr %7, align 4
  store i32 %3, ptr %8, align 4
  %12 = load ptr, ptr %6, align 8
  %13 = load i32, ptr %7, align 4
  %14 = call zeroext i8 @tvb_get_guint8(ptr noundef %12, i32 noundef %13)
  %15 = zext i8 %14 to i32
  %16 = ashr i32 %15, 4
  %17 = trunc i32 %16 to i8
  store i8 %17, ptr %10, align 1
  %18 = load ptr, ptr %5, align 8
  %19 = load ptr, ptr %6, align 8
  %20 = load i32, ptr %7, align 4
  %21 = load i32, ptr %8, align 4
  %22 = load i32, ptr @ett_scsi_naa, align 4
  %23 = load i8, ptr %10, align 1
  %24 = zext i8 %23 to i32
  %25 = call ptr @val_to_str(i32 noundef %24, ptr noundef @scsi_naa_designator_type_val, ptr noundef @.str.1620)
  %26 = call ptr (ptr, ptr, i32, i32, i32, ptr, ptr, ...) @proto_tree_add_subtree_format(ptr noundef %18, ptr noundef %19, i32 noundef %20, i32 noundef %21, i32 noundef %22, ptr noundef null, ptr noundef @.str.1623, ptr noundef %25)
  store ptr %26, ptr %9, align 8
  %27 = load ptr, ptr %9, align 8
  %28 = load i32, ptr @hf_scsi_naa_type, align 4
  %29 = load ptr, ptr %6, align 8
  %30 = load i32, ptr %7, align 4
  %31 = call ptr @proto_tree_add_item(ptr noundef %27, i32 noundef %28, ptr noundef %29, i32 noundef %30, i32 noundef 1, i32 noundef 0)
  %32 = load i8, ptr %10, align 1
  %33 = zext i8 %32 to i32
  switch i32 %33, label %121 [
    i32 2, label %34
    i32 3, label %62
    i32 5, label %71
    i32 6, label %93
  ]

34:                                               ; preds = %4
  %35 = load ptr, ptr %6, align 8
  %36 = load i32, ptr %7, align 4
  %37 = call i64 @tvb_get_guint64(ptr noundef %35, i32 noundef %36, i32 noundef 0)
  store i64 %37, ptr %11, align 8
  %38 = load ptr, ptr %9, align 8
  %39 = load i32, ptr @hf_scsi_naa_vendor_specific, align 4
  %40 = load ptr, ptr %6, align 8
  %41 = load i32, ptr %7, align 4
  %42 = load i64, ptr %11, align 8
  %43 = lshr i64 %42, 48
  %44 = and i64 %43, 4095
  %45 = trunc i64 %44 to i32
  %46 = call ptr @proto_tree_add_uint(ptr noundef %38, i32 noundef %39, ptr noundef %40, i32 noundef %41, i32 noundef 2, i32 noundef %45)
  %47 = load ptr, ptr %9, align 8
  %48 = load i32, ptr @hf_scsi_naa_ieee_company_id, align 4
  %49 = load ptr, ptr %6, align 8
  %50 = load i32, ptr %7, align 4
  %51 = add i32 %50, 2
  %52 = call ptr @proto_tree_add_item(ptr noundef %47, i32 noundef %48, ptr noundef %49, i32 noundef %51, i32 noundef 3, i32 noundef 0)
  %53 = load ptr, ptr %9, align 8
  %54 = load i32, ptr @hf_scsi_naa_vendor_specific, align 4
  %55 = load ptr, ptr %6, align 8
  %56 = load i32, ptr %7, align 4
  %57 = add i32 %56, 5
  %58 = load i64, ptr %11, align 8
  %59 = and i64 %58, 16777215
  %60 = trunc i64 %59 to i32
  %61 = call ptr @proto_tree_add_uint(ptr noundef %53, i32 noundef %54, ptr noundef %55, i32 noundef %57, i32 noundef 3, i32 noundef %60)
  br label %121

62:                                               ; preds = %4
  %63 = load ptr, ptr %9, align 8
  %64 = load i32, ptr @hf_scsi_naa_locally_assigned, align 4
  %65 = load ptr, ptr %6, align 8
  %66 = load i32, ptr %7, align 4
  %67 = add i32 %66, 1
  %68 = load i32, ptr %8, align 4
  %69 = sub i32 %68, 1
  %70 = call ptr @proto_tree_add_item(ptr noundef %63, i32 noundef %64, ptr noundef %65, i32 noundef %67, i32 noundef %69, i32 noundef 0)
  br label %121

71:                                               ; preds = %4
  %72 = load ptr, ptr %6, align 8
  %73 = load i32, ptr %7, align 4
  %74 = call i64 @tvb_get_guint64(ptr noundef %72, i32 noundef %73, i32 noundef 0)
  store i64 %74, ptr %11, align 8
  %75 = load ptr, ptr %9, align 8
  %76 = load i32, ptr @hf_scsi_naa_ieee_company_id, align 4
  %77 = load ptr, ptr %6, align 8
  %78 = load i32, ptr %7, align 4
  %79 = load i64, ptr %11, align 8
  %80 = lshr i64 %79, 36
  %81 = and i64 %80, 16777215
  %82 = trunc i64 %81 to i32
  %83 = call ptr @proto_tree_add_uint(ptr noundef %75, i32 noundef %76, ptr noundef %77, i32 noundef %78, i32 noundef 4, i32 noundef %82)
  %84 = load ptr, ptr %9, align 8
  %85 = load i32, ptr @hf_scsi_naa_vendor_specific, align 4
  %86 = load ptr, ptr %6, align 8
  %87 = load i32, ptr %7, align 4
  %88 = add i32 %87, 3
  %89 = load i64, ptr %11, align 8
  %90 = and i64 %89, 268435455
  %91 = trunc i64 %90 to i32
  %92 = call ptr @proto_tree_add_uint(ptr noundef %84, i32 noundef %85, ptr noundef %86, i32 noundef %88, i32 noundef 4, i32 noundef %91)
  br label %121

93:                                               ; preds = %4
  %94 = load ptr, ptr %6, align 8
  %95 = load i32, ptr %7, align 4
  %96 = call i64 @tvb_get_guint64(ptr noundef %94, i32 noundef %95, i32 noundef 0)
  store i64 %96, ptr %11, align 8
  %97 = load ptr, ptr %9, align 8
  %98 = load i32, ptr @hf_scsi_naa_ieee_company_id, align 4
  %99 = load ptr, ptr %6, align 8
  %100 = load i32, ptr %7, align 4
  %101 = load i64, ptr %11, align 8
  %102 = lshr i64 %101, 36
  %103 = and i64 %102, 16777215
  %104 = trunc i64 %103 to i32
  %105 = call ptr @proto_tree_add_uint(ptr noundef %97, i32 noundef %98, ptr noundef %99, i32 noundef %100, i32 noundef 4, i32 noundef %104)
  %106 = load ptr, ptr %9, align 8
  %107 = load i32, ptr @hf_scsi_naa_vendor_specific, align 4
  %108 = load ptr, ptr %6, align 8
  %109 = load i32, ptr %7, align 4
  %110 = add i32 %109, 3
  %111 = load i64, ptr %11, align 8
  %112 = and i64 %111, 268435455
  %113 = trunc i64 %112 to i32
  %114 = call ptr @proto_tree_add_uint(ptr noundef %106, i32 noundef %107, ptr noundef %108, i32 noundef %110, i32 noundef 4, i32 noundef %113)
  %115 = load ptr, ptr %9, align 8
  %116 = load i32, ptr @hf_scsi_naa_vendor_specific_extension, align 4
  %117 = load ptr, ptr %6, align 8
  %118 = load i32, ptr %7, align 4
  %119 = add i32 %118, 8
  %120 = call ptr @proto_tree_add_item(ptr noundef %115, i32 noundef %116, ptr noundef %117, i32 noundef %119, i32 noundef 8, i32 noundef 0)
  br label %121

121:                                              ; preds = %93, %71, %62, %34, %4
  ret void
}