; Function Attrs: nounwind uwtable
define internal fastcc void @dissect_naa_designator(ptr noundef %0, ptr noundef %1, i32 noundef %2, i32 noundef range(i32 0, 256) %3) unnamed_addr #0 {
  %5 = tail call zeroext i8 @tvb_get_guint8(ptr noundef %1, i32 noundef %2) #10
  %6 = lshr i8 %5, 4
  %7 = load i32, ptr @ett_scsi_naa, align 4
  %8 = zext nneg i8 %6 to i32
  %9 = tail call ptr @val_to_str(i32 noundef %8, ptr noundef nonnull @scsi_naa_designator_type_val, ptr noundef nonnull @.str.1620) #10
  %10 = tail call ptr (ptr, ptr, i32, i32, i32, ptr, ptr, ...) @proto_tree_add_subtree_format(ptr noundef %0, ptr noundef %1, i32 noundef %2, i32 noundef %3, i32 noundef %7, ptr noundef null, ptr noundef nonnull @.str.1623, ptr noundef %9) #10
  %11 = load i32, ptr @hf_scsi_naa_type, align 4
  %12 = tail call ptr @proto_tree_add_item(ptr noundef %10, i32 noundef %11, ptr noundef %1, i32 noundef %2, i32 noundef 1, i32 noundef 0) #10
  switch i8 %6, label %60 [
    i8 2, label %13
    i8 3, label %28
    i8 5, label %33
    i8 6, label %45
  ]

13:                                               ; preds = %4
  %14 = tail call i64 @tvb_get_guint64(ptr noundef %1, i32 noundef %2, i32 noundef 0) #10
  %15 = load i32, ptr @hf_scsi_naa_vendor_specific, align 4
  %16 = lshr i64 %14, 48
  %17 = trunc nuw nsw i64 %16 to i32
  %18 = and i32 %17, 4095
  %19 = tail call ptr @proto_tree_add_uint(ptr noundef %10, i32 noundef %15, ptr noundef %1, i32 noundef %2, i32 noundef 2, i32 noundef %18) #10
  %20 = load i32, ptr @hf_scsi_naa_ieee_company_id, align 4
  %21 = add i32 %2, 2
  %22 = tail call ptr @proto_tree_add_item(ptr noundef %10, i32 noundef %20, ptr noundef %1, i32 noundef %21, i32 noundef 3, i32 noundef 0) #10
  %23 = load i32, ptr @hf_scsi_naa_vendor_specific, align 4
  %24 = add i32 %2, 5
  %25 = trunc i64 %14 to i32
  %26 = and i32 %25, 16777215
  %27 = tail call ptr @proto_tree_add_uint(ptr noundef %10, i32 noundef %23, ptr noundef %1, i32 noundef %24, i32 noundef 3, i32 noundef %26) #10
  br label %60

28:                                               ; preds = %4
  %29 = load i32, ptr @hf_scsi_naa_locally_assigned, align 4
  %30 = add i32 %2, 1
  %31 = add nsw i32 %3, -1
  %32 = tail call ptr @proto_tree_add_item(ptr noundef %10, i32 noundef %29, ptr noundef %1, i32 noundef %30, i32 noundef %31, i32 noundef 0) #10
  br label %60

33:                                               ; preds = %4
  %34 = tail call i64 @tvb_get_guint64(ptr noundef %1, i32 noundef %2, i32 noundef 0) #10
  %35 = load i32, ptr @hf_scsi_naa_ieee_company_id, align 4
  %36 = lshr i64 %34, 36
  %37 = trunc nuw nsw i64 %36 to i32
  %38 = and i32 %37, 16777215
  %39 = tail call ptr @proto_tree_add_uint(ptr noundef %10, i32 noundef %35, ptr noundef %1, i32 noundef %2, i32 noundef 4, i32 noundef %38) #10
  %40 = load i32, ptr @hf_scsi_naa_vendor_specific, align 4
  %41 = add i32 %2, 3
  %42 = trunc i64 %34 to i32
  %43 = and i32 %42, 268435455
  %44 = tail call ptr @proto_tree_add_uint(ptr noundef %10, i32 noundef %40, ptr noundef %1, i32 noundef %41, i32 noundef 4, i32 noundef %43) #10
  br label %60

45:                                               ; preds = %4
  %46 = tail call i64 @tvb_get_guint64(ptr noundef %1, i32 noundef %2, i32 noundef 0) #10
  %47 = load i32, ptr @hf_scsi_naa_ieee_company_id, align 4
  %48 = lshr i64 %46, 36
  %49 = trunc nuw nsw i64 %48 to i32
  %50 = and i32 %49, 16777215
  %51 = tail call ptr @proto_tree_add_uint(ptr noundef %10, i32 noundef %47, ptr noundef %1, i32 noundef %2, i32 noundef 4, i32 noundef %50) #10
  %52 = load i32, ptr @hf_scsi_naa_vendor_specific, align 4
  %53 = add i32 %2, 3
  %54 = trunc i64 %46 to i32
  %55 = and i32 %54, 268435455
  %56 = tail call ptr @proto_tree_add_uint(ptr noundef %10, i32 noundef %52, ptr noundef %1, i32 noundef %53, i32 noundef 4, i32 noundef %55) #10
  %57 = load i32, ptr @hf_scsi_naa_vendor_specific_extension, align 4
  %58 = add i32 %2, 8
  %59 = tail call ptr @proto_tree_add_item(ptr noundef %10, i32 noundef %57, ptr noundef %1, i32 noundef %58, i32 noundef 8, i32 noundef 0) #10
  br label %60

60:                                               ; preds = %45, %33, %28, %13, %4
  ret void
}